ARM GAS  /tmp/ccfjf4ep.s 			page 1


   1              		.cpu cortex-m4
   2              		.eabi_attribute 27, 1
   3              		.eabi_attribute 28, 1
   4              		.eabi_attribute 20, 1
   5              		.eabi_attribute 21, 1
   6              		.eabi_attribute 23, 3
   7              		.eabi_attribute 24, 1
   8              		.eabi_attribute 25, 1
   9              		.eabi_attribute 26, 1
  10              		.eabi_attribute 30, 1
  11              		.eabi_attribute 34, 1
  12              		.eabi_attribute 18, 4
  13              		.file	"effects.c"
  14              		.text
  15              	.Ltext0:
  16              		.cfi_sections	.debug_frame
  17              		.section	.text.step_fuzz,"ax",%progbits
  18              		.align	1
  19              		.global	step_fuzz
  20              		.arch armv7e-m
  21              		.syntax unified
  22              		.thumb
  23              		.thumb_func
  24              		.fpu fpv4-sp-d16
  26              	step_fuzz:
  27              	.LVL0:
  28              	.LFB0:
  29              		.file 1 "Src/effects.c"
   1:Src/effects.c **** #include "effects.h"
   2:Src/effects.c **** #include <stdlib.h>
   3:Src/effects.c **** 
   4:Src/effects.c **** void step_fuzz(fuzz* f, int* sample) {
  30              		.loc 1 4 38 view -0
  31              		.cfi_startproc
  32              		@ args = 0, pretend = 0, frame = 0
  33              		@ frame_needed = 0, uses_anonymous_args = 0
  34              		@ link register save eliminated.
  35              		.loc 1 4 38 is_stmt 0 view .LVU1
  36 0000 10B4     		push	{r4}
  37              	.LCFI0:
  38              		.cfi_def_cfa_offset 4
  39              		.cfi_offset 4, -4
   5:Src/effects.c ****   if(*sample < f->center-f->threshold) *sample = f->center-f->threshold;
  40              		.loc 1 5 3 is_stmt 1 view .LVU2
  41              		.loc 1 5 6 is_stmt 0 view .LVU3
  42 0002 0A68     		ldr	r2, [r1]
  43              		.loc 1 5 17 view .LVU4
  44 0004 4368     		ldr	r3, [r0, #4]
  45              		.loc 1 5 27 view .LVU5
  46 0006 0468     		ldr	r4, [r0]
  47              		.loc 1 5 25 view .LVU6
  48 0008 1B1B     		subs	r3, r3, r4
  49              		.loc 1 5 5 view .LVU7
  50 000a 9A42     		cmp	r2, r3
  51 000c 00DA     		bge	.L2
  52              		.loc 1 5 40 is_stmt 1 discriminator 1 view .LVU8
  53              		.loc 1 5 48 is_stmt 0 discriminator 1 view .LVU9
ARM GAS  /tmp/ccfjf4ep.s 			page 2


  54 000e 0B60     		str	r3, [r1]
  55              	.L2:
   6:Src/effects.c ****   if(*sample > f->center+f->threshold) *sample = f->center+f->threshold;
  56              		.loc 1 6 3 is_stmt 1 view .LVU10
  57              		.loc 1 6 6 is_stmt 0 view .LVU11
  58 0010 0A68     		ldr	r2, [r1]
  59              		.loc 1 6 17 view .LVU12
  60 0012 4368     		ldr	r3, [r0, #4]
  61              		.loc 1 6 27 view .LVU13
  62 0014 0068     		ldr	r0, [r0]
  63              	.LVL1:
  64              		.loc 1 6 25 view .LVU14
  65 0016 0344     		add	r3, r3, r0
  66              		.loc 1 6 5 view .LVU15
  67 0018 9A42     		cmp	r2, r3
  68 001a 00DD     		ble	.L1
  69              		.loc 1 6 40 is_stmt 1 discriminator 1 view .LVU16
  70              		.loc 1 6 48 is_stmt 0 discriminator 1 view .LVU17
  71 001c 0B60     		str	r3, [r1]
  72              	.L1:
   7:Src/effects.c ****   //get back the amplitude we lost
   8:Src/effects.c ****   //*sample *= 2;
   9:Src/effects.c ****   //*sample *= ((float)(4095-f->threshold)/4095)*10;
  10:Src/effects.c **** }
  73              		.loc 1 10 1 view .LVU18
  74 001e 5DF8044B 		ldr	r4, [sp], #4
  75              	.LCFI1:
  76              		.cfi_restore 4
  77              		.cfi_def_cfa_offset 0
  78 0022 7047     		bx	lr
  79              		.cfi_endproc
  80              	.LFE0:
  82              		.section	.text.default_init_fuzz,"ax",%progbits
  83              		.align	1
  84              		.global	default_init_fuzz
  85              		.syntax unified
  86              		.thumb
  87              		.thumb_func
  88              		.fpu fpv4-sp-d16
  90              	default_init_fuzz:
  91              	.LVL2:
  92              	.LFB1:
  11:Src/effects.c **** 
  12:Src/effects.c **** 
  13:Src/effects.c **** void default_init_fuzz(fuzz* f) {
  93              		.loc 1 13 33 is_stmt 1 view -0
  94              		.cfi_startproc
  95              		@ args = 0, pretend = 0, frame = 0
  96              		@ frame_needed = 0, uses_anonymous_args = 0
  97              		@ link register save eliminated.
  14:Src/effects.c ****   f->threshold = 750;
  98              		.loc 1 14 3 view .LVU20
  99              		.loc 1 14 16 is_stmt 0 view .LVU21
 100 0000 40F2EE23 		movw	r3, #750
 101 0004 0360     		str	r3, [r0]
  15:Src/effects.c ****   f->center = 4095/2;
 102              		.loc 1 15 3 is_stmt 1 view .LVU22
ARM GAS  /tmp/ccfjf4ep.s 			page 3


 103              		.loc 1 15 13 is_stmt 0 view .LVU23
 104 0006 40F2FF73 		movw	r3, #2047
 105 000a 4360     		str	r3, [r0, #4]
  16:Src/effects.c **** }
 106              		.loc 1 16 1 view .LVU24
 107 000c 7047     		bx	lr
 108              		.cfi_endproc
 109              	.LFE1:
 111              		.global	__aeabi_i2d
 112              		.global	__aeabi_dmul
 113              		.global	__aeabi_dadd
 114              		.global	__aeabi_d2iz
 115              		.section	.text.step_reverb,"ax",%progbits
 116              		.align	1
 117              		.global	step_reverb
 118              		.syntax unified
 119              		.thumb
 120              		.thumb_func
 121              		.fpu fpv4-sp-d16
 123              	step_reverb:
 124              	.LVL3:
 125              	.LFB2:
  17:Src/effects.c **** 
  18:Src/effects.c **** void step_reverb(reverb* r, int* sample) {
 126              		.loc 1 18 42 is_stmt 1 view -0
 127              		.cfi_startproc
 128              		@ args = 0, pretend = 0, frame = 0
 129              		@ frame_needed = 0, uses_anonymous_args = 0
 130              		.loc 1 18 42 is_stmt 0 view .LVU26
 131 0000 F8B5     		push	{r3, r4, r5, r6, r7, lr}
 132              	.LCFI2:
 133              		.cfi_def_cfa_offset 24
 134              		.cfi_offset 3, -24
 135              		.cfi_offset 4, -20
 136              		.cfi_offset 5, -16
 137              		.cfi_offset 6, -12
 138              		.cfi_offset 7, -8
 139              		.cfi_offset 14, -4
 140 0002 0446     		mov	r4, r0
 141 0004 0D46     		mov	r5, r1
  19:Src/effects.c ****   *sample += (r->buffer[r->idx % r->bufferSize] * r->fade);
 142              		.loc 1 19 3 is_stmt 1 view .LVU27
 143              		.loc 1 19 16 is_stmt 0 view .LVU28
 144 0006 4068     		ldr	r0, [r0, #4]
 145              	.LVL4:
 146              		.loc 1 19 26 view .LVU29
 147 0008 A168     		ldr	r1, [r4, #8]
 148              	.LVL5:
 149              		.loc 1 19 35 view .LVU30
 150 000a 2268     		ldr	r2, [r4]
 151              		.loc 1 19 32 view .LVU31
 152 000c 91FBF2F3 		sdiv	r3, r1, r2
 153 0010 02FB1313 		mls	r3, r2, r3, r1
 154              		.loc 1 19 52 view .LVU32
 155 0014 D4E90467 		ldrd	r6, [r4, #16]
 156              		.loc 1 19 49 view .LVU33
 157 0018 30F91300 		ldrsh	r0, [r0, r3, lsl #1]
ARM GAS  /tmp/ccfjf4ep.s 			page 4


 158 001c FFF7FEFF 		bl	__aeabi_i2d
 159              	.LVL6:
 160 0020 3246     		mov	r2, r6
 161 0022 3B46     		mov	r3, r7
 162 0024 FFF7FEFF 		bl	__aeabi_dmul
 163              	.LVL7:
 164 0028 0646     		mov	r6, r0
 165 002a 0F46     		mov	r7, r1
 166              		.loc 1 19 11 view .LVU34
 167 002c 2868     		ldr	r0, [r5]
 168 002e FFF7FEFF 		bl	__aeabi_i2d
 169              	.LVL8:
 170 0032 3246     		mov	r2, r6
 171 0034 3B46     		mov	r3, r7
 172 0036 FFF7FEFF 		bl	__aeabi_dadd
 173              	.LVL9:
 174 003a FFF7FEFF 		bl	__aeabi_d2iz
 175              	.LVL10:
 176 003e 2860     		str	r0, [r5]
  20:Src/effects.c ****   r->buffer[r->idx % r->bufferSize] = *sample;
 177              		.loc 1 20 3 is_stmt 1 view .LVU35
 178              		.loc 1 20 4 is_stmt 0 view .LVU36
 179 0040 6568     		ldr	r5, [r4, #4]
 180              	.LVL11:
 181              		.loc 1 20 14 view .LVU37
 182 0042 A168     		ldr	r1, [r4, #8]
 183              		.loc 1 20 23 view .LVU38
 184 0044 2268     		ldr	r2, [r4]
 185              		.loc 1 20 20 view .LVU39
 186 0046 91FBF2F3 		sdiv	r3, r1, r2
 187 004a 02FB1313 		mls	r3, r2, r3, r1
 188              		.loc 1 20 37 view .LVU40
 189 004e 25F81300 		strh	r0, [r5, r3, lsl #1]	@ movhi
  21:Src/effects.c ****   r->idx++;
 190              		.loc 1 21 3 is_stmt 1 view .LVU41
 191              		.loc 1 21 4 is_stmt 0 view .LVU42
 192 0052 A368     		ldr	r3, [r4, #8]
 193              		.loc 1 21 9 view .LVU43
 194 0054 0133     		adds	r3, r3, #1
 195 0056 A360     		str	r3, [r4, #8]
  22:Src/effects.c **** }
 196              		.loc 1 22 1 view .LVU44
 197 0058 F8BD     		pop	{r3, r4, r5, r6, r7, pc}
 198              		.loc 1 22 1 view .LVU45
 199              		.cfi_endproc
 200              	.LFE2:
 202              		.section	.text.default_init_reverb,"ax",%progbits
 203              		.align	1
 204              		.global	default_init_reverb
 205              		.syntax unified
 206              		.thumb
 207              		.thumb_func
 208              		.fpu fpv4-sp-d16
 210              	default_init_reverb:
 211              	.LVL12:
 212              	.LFB3:
  23:Src/effects.c **** 
ARM GAS  /tmp/ccfjf4ep.s 			page 5


  24:Src/effects.c **** void default_init_reverb(reverb* r) {
 213              		.loc 1 24 37 is_stmt 1 view -0
 214              		.cfi_startproc
 215              		@ args = 0, pretend = 0, frame = 0
 216              		@ frame_needed = 0, uses_anonymous_args = 0
 217              		.loc 1 24 37 is_stmt 0 view .LVU47
 218 0000 10B5     		push	{r4, lr}
 219              	.LCFI3:
 220              		.cfi_def_cfa_offset 8
 221              		.cfi_offset 4, -8
 222              		.cfi_offset 14, -4
 223 0002 0446     		mov	r4, r0
  25:Src/effects.c ****   r->idx = 0;
 224              		.loc 1 25 3 is_stmt 1 view .LVU48
 225              		.loc 1 25 10 is_stmt 0 view .LVU49
 226 0004 0023     		movs	r3, #0
 227 0006 8360     		str	r3, [r0, #8]
  26:Src/effects.c ****   r->bufferSize = 7500;
 228              		.loc 1 26 3 is_stmt 1 view .LVU50
 229              		.loc 1 26 17 is_stmt 0 view .LVU51
 230 0008 41F64C50 		movw	r0, #7500
 231              	.LVL13:
 232              		.loc 1 26 17 view .LVU52
 233 000c 2060     		str	r0, [r4]
  27:Src/effects.c ****   r->buffer = (short*) calloc(r->bufferSize, sizeof(short));
 234              		.loc 1 27 3 is_stmt 1 view .LVU53
 235              		.loc 1 27 24 is_stmt 0 view .LVU54
 236 000e 0221     		movs	r1, #2
 237 0010 FFF7FEFF 		bl	calloc
 238              	.LVL14:
 239              		.loc 1 27 13 view .LVU55
 240 0014 6060     		str	r0, [r4, #4]
  28:Src/effects.c ****   r->fade = 0.5;
 241              		.loc 1 28 3 is_stmt 1 view .LVU56
 242              		.loc 1 28 11 is_stmt 0 view .LVU57
 243 0016 0022     		movs	r2, #0
 244 0018 014B     		ldr	r3, .L10
 245 001a C4E90423 		strd	r2, [r4, #16]
  29:Src/effects.c **** }
 246              		.loc 1 29 1 view .LVU58
 247 001e 10BD     		pop	{r4, pc}
 248              	.LVL15:
 249              	.L11:
 250              		.loc 1 29 1 view .LVU59
 251              		.align	2
 252              	.L10:
 253 0020 0000E03F 		.word	1071644672
 254              		.cfi_endproc
 255              	.LFE3:
 257              		.section	.text.step_octave,"ax",%progbits
 258              		.align	1
 259              		.global	step_octave
 260              		.syntax unified
 261              		.thumb
 262              		.thumb_func
 263              		.fpu fpv4-sp-d16
 265              	step_octave:
ARM GAS  /tmp/ccfjf4ep.s 			page 6


 266              	.LVL16:
 267              	.LFB4:
  30:Src/effects.c **** 
  31:Src/effects.c **** void step_octave(octave* o, int* sample) {
 268              		.loc 1 31 42 is_stmt 1 view -0
 269              		.cfi_startproc
 270              		@ args = 0, pretend = 0, frame = 0
 271              		@ frame_needed = 0, uses_anonymous_args = 0
 272              		@ link register save eliminated.
 273              		.loc 1 31 42 is_stmt 0 view .LVU61
 274 0000 70B4     		push	{r4, r5, r6}
 275              	.LCFI4:
 276              		.cfi_def_cfa_offset 12
 277              		.cfi_offset 4, -12
 278              		.cfi_offset 5, -8
 279              		.cfi_offset 6, -4
  32:Src/effects.c ****   o->buffer[o->writeIdx % o->bufferSize] = *sample;
 280              		.loc 1 32 3 is_stmt 1 view .LVU62
 281              		.loc 1 32 44 is_stmt 0 view .LVU63
 282 0002 0E68     		ldr	r6, [r1]
 283              		.loc 1 32 4 view .LVU64
 284 0004 4568     		ldr	r5, [r0, #4]
 285              		.loc 1 32 14 view .LVU65
 286 0006 C468     		ldr	r4, [r0, #12]
 287              		.loc 1 32 28 view .LVU66
 288 0008 0268     		ldr	r2, [r0]
 289              		.loc 1 32 25 view .LVU67
 290 000a 94FBF2F3 		sdiv	r3, r4, r2
 291 000e 02FB1343 		mls	r3, r2, r3, r4
 292              		.loc 1 32 42 view .LVU68
 293 0012 25F81360 		strh	r6, [r5, r3, lsl #1]	@ movhi
  33:Src/effects.c ****   o->writeIdx++;
 294              		.loc 1 33 3 is_stmt 1 view .LVU69
 295              		.loc 1 33 4 is_stmt 0 view .LVU70
 296 0016 C368     		ldr	r3, [r0, #12]
 297              		.loc 1 33 14 view .LVU71
 298 0018 0133     		adds	r3, r3, #1
 299 001a C360     		str	r3, [r0, #12]
  34:Src/effects.c ****   *sample = o->buffer[(int)o->readIdx % o->bufferSize];
 300              		.loc 1 34 3 is_stmt 1 view .LVU72
 301              		.loc 1 34 14 is_stmt 0 view .LVU73
 302 001c 4568     		ldr	r5, [r0, #4]
 303              		.loc 1 34 29 view .LVU74
 304 001e D0ED027A 		vldr.32	s15, [r0, #8]
 305              		.loc 1 34 23 view .LVU75
 306 0022 FDEEE77A 		vcvt.s32.f32	s15, s15
 307 0026 17EE903A 		vmov	r3, s15	@ int
 308              		.loc 1 34 42 view .LVU76
 309 002a 0468     		ldr	r4, [r0]
 310              		.loc 1 34 39 view .LVU77
 311 002c 93FBF4F2 		sdiv	r2, r3, r4
 312 0030 04FB1233 		mls	r3, r4, r2, r3
 313              		.loc 1 34 22 view .LVU78
 314 0034 35F91330 		ldrsh	r3, [r5, r3, lsl #1]
 315              		.loc 1 34 11 view .LVU79
 316 0038 0B60     		str	r3, [r1]
  35:Src/effects.c **** 
ARM GAS  /tmp/ccfjf4ep.s 			page 7


  36:Src/effects.c ****   float scale = 0;
 317              		.loc 1 36 3 is_stmt 1 view .LVU80
 318              	.LVL17:
  37:Src/effects.c ****   if(o->octChange < 0) scale = -1.0f/(o->octChange-1);
 319              		.loc 1 37 3 view .LVU81
 320              		.loc 1 37 7 is_stmt 0 view .LVU82
 321 003a 0369     		ldr	r3, [r0, #16]
 322              		.loc 1 37 5 view .LVU83
 323 003c 002B     		cmp	r3, #0
 324 003e 10DB     		blt	.L17
  36:Src/effects.c ****   if(o->octChange < 0) scale = -1.0f/(o->octChange-1);
 325              		.loc 1 36 9 view .LVU84
 326 0040 9FED0D7A 		vldr.32	s14, .L18
 327              	.LVL18:
 328              	.L13:
  38:Src/effects.c ****   if(o->octChange >= 0) scale = o->octChange+1;
 329              		.loc 1 38 3 is_stmt 1 view .LVU85
 330              		.loc 1 38 5 is_stmt 0 view .LVU86
 331 0044 002B     		cmp	r3, #0
 332 0046 04DB     		blt	.L14
 333              		.loc 1 38 25 is_stmt 1 discriminator 1 view .LVU87
 334              		.loc 1 38 45 is_stmt 0 discriminator 1 view .LVU88
 335 0048 0133     		adds	r3, r3, #1
 336              		.loc 1 38 31 discriminator 1 view .LVU89
 337 004a 07EE903A 		vmov	s15, r3	@ int
 338 004e B8EEE77A 		vcvt.f32.s32	s14, s15
 339              	.LVL19:
 340              	.L14:
  39:Src/effects.c ****   o->readIdx += scale;
 341              		.loc 1 39 3 is_stmt 1 view .LVU90
 342              		.loc 1 39 14 is_stmt 0 view .LVU91
 343 0052 D0ED027A 		vldr.32	s15, [r0, #8]
 344 0056 77EE877A 		vadd.f32	s15, s15, s14
 345 005a C0ED027A 		vstr.32	s15, [r0, #8]
  40:Src/effects.c **** }
 346              		.loc 1 40 1 view .LVU92
 347 005e 70BC     		pop	{r4, r5, r6}
 348              	.LCFI5:
 349              		.cfi_remember_state
 350              		.cfi_restore 6
 351              		.cfi_restore 5
 352              		.cfi_restore 4
 353              		.cfi_def_cfa_offset 0
 354 0060 7047     		bx	lr
 355              	.LVL20:
 356              	.L17:
 357              	.LCFI6:
 358              		.cfi_restore_state
  37:Src/effects.c ****   if(o->octChange >= 0) scale = o->octChange+1;
 359              		.loc 1 37 24 is_stmt 1 discriminator 1 view .LVU93
  37:Src/effects.c ****   if(o->octChange >= 0) scale = o->octChange+1;
 360              		.loc 1 37 51 is_stmt 0 discriminator 1 view .LVU94
 361 0062 5A1E     		subs	r2, r3, #1
 362 0064 07EE902A 		vmov	s15, r2	@ int
  37:Src/effects.c ****   if(o->octChange >= 0) scale = o->octChange+1;
 363              		.loc 1 37 37 discriminator 1 view .LVU95
 364 0068 F8EEE77A 		vcvt.f32.s32	s15, s15
ARM GAS  /tmp/ccfjf4ep.s 			page 8


  37:Src/effects.c ****   if(o->octChange >= 0) scale = o->octChange+1;
 365              		.loc 1 37 30 discriminator 1 view .LVU96
 366 006c FFEE006A 		vmov.f32	s13, #-1.0e+0
 367 0070 86EEA77A 		vdiv.f32	s14, s13, s15
 368              	.LVL21:
  37:Src/effects.c ****   if(o->octChange >= 0) scale = o->octChange+1;
 369              		.loc 1 37 30 discriminator 1 view .LVU97
 370 0074 E6E7     		b	.L13
 371              	.L19:
 372 0076 00BF     		.align	2
 373              	.L18:
 374 0078 00000000 		.word	0
 375              		.cfi_endproc
 376              	.LFE4:
 378              		.section	.text.default_init_octave,"ax",%progbits
 379              		.align	1
 380              		.global	default_init_octave
 381              		.syntax unified
 382              		.thumb
 383              		.thumb_func
 384              		.fpu fpv4-sp-d16
 386              	default_init_octave:
 387              	.LVL22:
 388              	.LFB5:
  41:Src/effects.c **** 
  42:Src/effects.c **** void default_init_octave(octave* o) {
 389              		.loc 1 42 37 is_stmt 1 view -0
 390              		.cfi_startproc
 391              		@ args = 0, pretend = 0, frame = 0
 392              		@ frame_needed = 0, uses_anonymous_args = 0
 393              		.loc 1 42 37 is_stmt 0 view .LVU99
 394 0000 10B5     		push	{r4, lr}
 395              	.LCFI7:
 396              		.cfi_def_cfa_offset 8
 397              		.cfi_offset 4, -8
 398              		.cfi_offset 14, -4
 399 0002 0446     		mov	r4, r0
  43:Src/effects.c ****   o->bufferSize = 7500;
 400              		.loc 1 43 3 is_stmt 1 view .LVU100
 401              		.loc 1 43 17 is_stmt 0 view .LVU101
 402 0004 41F64C50 		movw	r0, #7500
 403              	.LVL23:
 404              		.loc 1 43 17 view .LVU102
 405 0008 2060     		str	r0, [r4]
  44:Src/effects.c ****   o->buffer = (short*) calloc(o->bufferSize, sizeof(short));
 406              		.loc 1 44 3 is_stmt 1 view .LVU103
 407              		.loc 1 44 24 is_stmt 0 view .LVU104
 408 000a 0221     		movs	r1, #2
 409 000c FFF7FEFF 		bl	calloc
 410              	.LVL24:
 411              		.loc 1 44 13 view .LVU105
 412 0010 6060     		str	r0, [r4, #4]
  45:Src/effects.c ****   o->readIdx = o->bufferSize/2;
 413              		.loc 1 45 3 is_stmt 1 view .LVU106
 414              		.loc 1 45 14 is_stmt 0 view .LVU107
 415 0012 044B     		ldr	r3, .L22
 416 0014 A360     		str	r3, [r4, #8]	@ float
ARM GAS  /tmp/ccfjf4ep.s 			page 9


  46:Src/effects.c ****   o->writeIdx = 0;
 417              		.loc 1 46 3 is_stmt 1 view .LVU108
 418              		.loc 1 46 15 is_stmt 0 view .LVU109
 419 0016 0023     		movs	r3, #0
 420 0018 E360     		str	r3, [r4, #12]
  47:Src/effects.c ****   o->octChange = -1;
 421              		.loc 1 47 3 is_stmt 1 view .LVU110
 422              		.loc 1 47 16 is_stmt 0 view .LVU111
 423 001a 4FF0FF33 		mov	r3, #-1
 424 001e 2361     		str	r3, [r4, #16]
  48:Src/effects.c **** }
 425              		.loc 1 48 1 view .LVU112
 426 0020 10BD     		pop	{r4, pc}
 427              	.LVL25:
 428              	.L23:
 429              		.loc 1 48 1 view .LVU113
 430 0022 00BF     		.align	2
 431              	.L22:
 432 0024 00606A45 		.word	1164599296
 433              		.cfi_endproc
 434              	.LFE5:
 436              		.text
 437              	.Letext0:
 438              		.file 2 "Inc/effects.h"
 439              		.file 3 "/home/garnet/gcc-arm-none-eabi-9-2019-q4-major/arm-none-eabi/include/sys/lock.h"
 440              		.file 4 "/home/garnet/gcc-arm-none-eabi-9-2019-q4-major/arm-none-eabi/include/sys/_types.h"
 441              		.file 5 "/home/garnet/gcc-arm-none-eabi-9-2019-q4-major/lib/gcc/arm-none-eabi/9.2.1/include/stddef
 442              		.file 6 "/home/garnet/gcc-arm-none-eabi-9-2019-q4-major/arm-none-eabi/include/sys/reent.h"
 443              		.file 7 "/home/garnet/gcc-arm-none-eabi-9-2019-q4-major/arm-none-eabi/include/stdlib.h"
ARM GAS  /tmp/ccfjf4ep.s 			page 10


DEFINED SYMBOLS
                            *ABS*:0000000000000000 effects.c
     /tmp/ccfjf4ep.s:18     .text.step_fuzz:0000000000000000 $t
     /tmp/ccfjf4ep.s:26     .text.step_fuzz:0000000000000000 step_fuzz
     /tmp/ccfjf4ep.s:83     .text.default_init_fuzz:0000000000000000 $t
     /tmp/ccfjf4ep.s:90     .text.default_init_fuzz:0000000000000000 default_init_fuzz
     /tmp/ccfjf4ep.s:116    .text.step_reverb:0000000000000000 $t
     /tmp/ccfjf4ep.s:123    .text.step_reverb:0000000000000000 step_reverb
     /tmp/ccfjf4ep.s:203    .text.default_init_reverb:0000000000000000 $t
     /tmp/ccfjf4ep.s:210    .text.default_init_reverb:0000000000000000 default_init_reverb
     /tmp/ccfjf4ep.s:253    .text.default_init_reverb:0000000000000020 $d
     /tmp/ccfjf4ep.s:258    .text.step_octave:0000000000000000 $t
     /tmp/ccfjf4ep.s:265    .text.step_octave:0000000000000000 step_octave
     /tmp/ccfjf4ep.s:374    .text.step_octave:0000000000000078 $d
     /tmp/ccfjf4ep.s:379    .text.default_init_octave:0000000000000000 $t
     /tmp/ccfjf4ep.s:386    .text.default_init_octave:0000000000000000 default_init_octave
     /tmp/ccfjf4ep.s:432    .text.default_init_octave:0000000000000024 $d

UNDEFINED SYMBOLS
__aeabi_i2d
__aeabi_dmul
__aeabi_dadd
__aeabi_d2iz
calloc
